; Function Attrs: nounwind uwtable
define void @Mvc_CoverAllocateMask(ptr noundef %0) local_unnamed_addr #0 {
  %2 = getelementptr inbounds nuw i8, ptr %0, i64 64
  %3 = load ptr, ptr %2, align 8, !tbaa !32
  %4 = icmp eq ptr %3, null
  br i1 %4, label %5, label %7

5:                                                ; preds = %1
  %6 = tail call ptr @Mvc_CubeAlloc(ptr noundef nonnull %0) #7
  store ptr %6, ptr %2, align 8, !tbaa !32
  br label %7

7:                                                ; preds = %5, %1
  ret void
}